(lp0
(S'cppflags'
p1
ccopy_reg
_reconstructor
p2
(cino.utils
SpaceList
p3
c__builtin__
list
p4
(lp5
S'-mmcu=atmega328p'
p6
aS'-DF_CPU=16000000L'
p7
aS'-DARDUINO=105'
p8
aS'-I/usr/share/arduino/hardware/arduino/cores/arduino'
p9
aS'-ffunction-sections'
p10
aS'-fdata-sections'
p11
aS'-g'
p12
aS'-Os'
p13
aS'-w'
p14
aS'-I/usr/share/arduino/hardware/arduino/variants/standard'
p15
aS'-Ilib/FastLED'
p16
aS'-Ilib/FastLED/docs'
p17
aS'-Ilib/FastLED/extras'
p18
aS'-Ilib/FastLED/lib8tion'
p19
aS'-Ilib/FastLED/platforms'
p20
aS'-Ilib/FastLED/platforms/avr'
p21
aS'-Ilib/FastLED/platforms/arm'
p22
aS'-Ilib/FastLED/platforms/arm/nrf51'
p23
aS'-Ilib/FastLED/platforms/arm/stm32'
p24
aS'-Ilib/FastLED/platforms/arm/common'
p25
aS'-Ilib/FastLED/platforms/arm/d21'
p26
aS'-Ilib/FastLED/platforms/arm/k20'
p27
aS'-Ilib/FastLED/platforms/arm/kl26'
p28
aS'-Ilib/FastLED/platforms/arm/sam'
p29
aS'-Ilib/FastLED/platforms/arm/nrf51'
p30
aS'-Ilib/FastLED/platforms/arm/stm32'
p31
aS'-Ilib/FastLED/platforms/arm/common'
p32
aS'-Ilib/FastLED/platforms/arm/d21'
p33
aS'-Ilib/FastLED/platforms/arm/k20'
p34
aS'-Ilib/FastLED/platforms/arm/kl26'
p35
aS'-Ilib/FastLED/platforms/arm/sam'
p36
aS'-I/usr/share/arduino/hardware/arduino/cores/arduino'
p37
aS'-I/usr/share/arduino/hardware/arduino/cores/arduino/avr-libc'
p38
atp39
Rp40
tp41
a(S'cxx'
p42
S'/usr/share/arduino/hardware/tools/avr/bin/avr-g++'
p43
tp44
a(S'arduino_libraries_dir'
p45
S'/usr/share/arduino/libraries'
p46
tp47
a(S'avrdude'
p48
S'/usr/share/arduino/hardware/tools/avrdude'
p49
tp50
a(S'ar'
p51
S'/usr/share/arduino/hardware/tools/avr/bin/avr-ar'
p52
tp53
a(S'names'
p54
(dp55
S'cpp'
p56
S'%s.cpp'
p57
sS'obj'
p58
S'%s.o'
p59
sS'lib'
p60
S'lib%s.a'
p61
sS'deps'
p62
S'%s.d'
p63
stp64
a(S'ldflags'
p65
g2
(g3
g4
(lp66
g6
aS'-Wl,-Os'
p67
aS'-Wl,--gc-sections'
p68
atp69
Rp70
tp71
a(S'arduino_lib_version'
p72
g2
(cino.environment
Version
p73
c__builtin__
tuple
p74
(I1
I0
I5
tp75
tp76
Rp77
tp78
a(S'objcopy'
p79
S'/usr/share/arduino/hardware/tools/avr/bin/avr-objcopy'
p80
tp81
a(S'board_models'
p82
cino.environment
BoardModels
p83
((lp84
(lp85
S'uno'
p86
a(dp87
S'_coredir'
p88
S'/usr/share/arduino/hardware/arduino'
p89
sS'bootloader'
p90
(dp91
S'extended_fuses'
p92
S'0x05'
p93
sS'high_fuses'
p94
S'0xde'
p95
sS'low_fuses'
p96
S'0xff'
p97
sS'lock_bits'
p98
S'0x0F'
p99
sS'file'
p100
S'optiboot_atmega328.hex'
p101
sS'path'
p102
S'optiboot'
p103
sS'unlock_bits'
p104
S'0x3F'
p105
ssS'build'
p106
(dp107
S'core'
p108
S'arduino'
p109
sS'mcu'
p110
S'atmega328p'
p111
sS'f_cpu'
p112
S'16000000L'
p113
sS'variant'
p114
S'standard'
p115
ssS'name'
p116
S'Arduino Uno'
p117
sS'upload'
p118
(dp119
S'protocol'
p120
S'arduino'
p121
sS'maximum_size'
p122
S'32256'
p123
sS'speed'
p124
S'115200'
p125
ssaa(lp126
S'atmega328'
p127
a(dp128
g88
S'/usr/share/arduino/hardware/arduino'
p129
sS'bootloader'
p130
(dp131
S'extended_fuses'
p132
S'0x05'
p133
sS'high_fuses'
p134
S'0xDA'
p135
sS'low_fuses'
p136
S'0xFF'
p137
sS'lock_bits'
p138
S'0x0F'
p139
sS'file'
p140
S'ATmegaBOOT_168_atmega328.hex'
p141
sS'path'
p142
S'atmega'
p143
sS'unlock_bits'
p144
S'0x3F'
p145
ssS'build'
p146
(dp147
S'core'
p148
S'arduino'
p149
sS'mcu'
p150
S'atmega328p'
p151
sS'f_cpu'
p152
S'16000000L'
p153
sS'variant'
p154
S'standard'
p155
ssS'name'
p156
S'Arduino Duemilanove w/ ATmega328'
p157
sS'upload'
p158
(dp159
S'protocol'
p160
S'arduino'
p161
sS'maximum_size'
p162
S'30720'
p163
sS'speed'
p164
S'57600'
p165
ssaa(lp166
S'diecimila'
p167
a(dp168
g88
S'/usr/share/arduino/hardware/arduino'
p169
sS'bootloader'
p170
(dp171
S'extended_fuses'
p172
S'0x00'
p173
sS'high_fuses'
p174
S'0xdd'
p175
sS'low_fuses'
p176
S'0xff'
p177
sS'lock_bits'
p178
S'0x0F'
p179
sS'file'
p180
S'ATmegaBOOT_168_diecimila.hex'
p181
sS'path'
p182
S'atmega'
p183
sS'unlock_bits'
p184
S'0x3F'
p185
ssS'build'
p186
(dp187
S'core'
p188
S'arduino'
p189
sS'mcu'
p190
S'atmega168'
p191
sS'f_cpu'
p192
S'16000000L'
p193
sS'variant'
p194
S'standard'
p195
ssS'name'
p196
S'Arduino Diecimila or Duemilanove w/ ATmega168'
p197
sS'upload'
p198
(dp199
S'protocol'
p200
S'arduino'
p201
sS'maximum_size'
p202
S'14336'
p203
sS'speed'
p204
S'19200'
p205
ssaa(lp206
S'nano328'
p207
a(dp208
g88
S'/usr/share/arduino/hardware/arduino'
p209
sS'bootloader'
p210
(dp211
S'extended_fuses'
p212
S'0x05'
p213
sS'high_fuses'
p214
S'0xDA'
p215
sS'low_fuses'
p216
S'0xFF'
p217
sS'lock_bits'
p218
S'0x0F'
p219
sS'file'
p220
S'ATmegaBOOT_168_atmega328.hex'
p221
sS'path'
p222
S'atmega'
p223
sS'unlock_bits'
p224
S'0x3F'
p225
ssS'build'
p226
(dp227
S'core'
p228
S'arduino'
p229
sS'mcu'
p230
S'atmega328p'
p231
sS'f_cpu'
p232
S'16000000L'
p233
sS'variant'
p234
S'eightanaloginputs'
p235
ssS'name'
p236
S'Arduino Nano w/ ATmega328'
p237
sS'upload'
p238
(dp239
S'protocol'
p240
S'arduino'
p241
sS'maximum_size'
p242
S'30720'
p243
sS'speed'
p244
S'57600'
p245
ssaa(lp246
S'nano'
p247
a(dp248
g88
S'/usr/share/arduino/hardware/arduino'
p249
sS'bootloader'
p250
(dp251
S'extended_fuses'
p252
S'0x00'
p253
sS'high_fuses'
p254
S'0xdd'
p255
sS'low_fuses'
p256
S'0xff'
p257
sS'lock_bits'
p258
S'0x0F'
p259
sS'file'
p260
S'ATmegaBOOT_168_diecimila.hex'
p261
sS'path'
p262
S'atmega'
p263
sS'unlock_bits'
p264
S'0x3F'
p265
ssS'build'
p266
(dp267
S'core'
p268
S'arduino'
p269
sS'mcu'
p270
S'atmega168'
p271
sS'f_cpu'
p272
S'16000000L'
p273
sS'variant'
p274
S'eightanaloginputs'
p275
ssS'name'
p276
S'Arduino Nano w/ ATmega168'
p277
sS'upload'
p278
(dp279
S'protocol'
p280
S'arduino'
p281
sS'maximum_size'
p282
S'14336'
p283
sS'speed'
p284
S'19200'
p285
ssaa(lp286
S'mega2560'
p287
a(dp288
g88
S'/usr/share/arduino/hardware/arduino'
p289
sS'bootloader'
p290
(dp291
S'extended_fuses'
p292
S'0xFD'
p293
sS'high_fuses'
p294
S'0xD8'
p295
sS'low_fuses'
p296
S'0xFF'
p297
sS'lock_bits'
p298
S'0x0F'
p299
sS'file'
p300
S'stk500boot_v2_mega2560.hex'
p301
sS'path'
p302
S'stk500v2'
p303
sS'unlock_bits'
p304
S'0x3F'
p305
ssS'build'
p306
(dp307
S'core'
p308
S'arduino'
p309
sS'mcu'
p310
S'atmega2560'
p311
sS'f_cpu'
p312
S'16000000L'
p313
sS'variant'
p314
S'mega'
p315
ssS'name'
p316
S'Arduino Mega 2560 or Mega ADK'
p317
sS'upload'
p318
(dp319
S'protocol'
p320
S'wiring'
p321
sS'maximum_size'
p322
S'258048'
p323
sS'speed'
p324
S'115200'
p325
ssaa(lp326
S'mega'
p327
a(dp328
g88
S'/usr/share/arduino/hardware/arduino'
p329
sS'bootloader'
p330
(dp331
S'extended_fuses'
p332
S'0xF5'
p333
sS'high_fuses'
p334
S'0xDA'
p335
sS'low_fuses'
p336
S'0xFF'
p337
sS'lock_bits'
p338
S'0x0F'
p339
sS'file'
p340
S'ATmegaBOOT_168_atmega1280.hex'
p341
sS'path'
p342
S'atmega'
p343
sS'unlock_bits'
p344
S'0x3F'
p345
ssS'build'
p346
(dp347
S'core'
p348
S'arduino'
p349
sS'mcu'
p350
S'atmega1280'
p351
sS'f_cpu'
p352
S'16000000L'
p353
sS'variant'
p354
S'mega'
p355
ssS'name'
p356
S'Arduino Mega (ATmega1280)'
p357
sS'upload'
p358
(dp359
S'protocol'
p360
S'arduino'
p361
sS'maximum_size'
p362
S'126976'
p363
sS'speed'
p364
S'57600'
p365
ssaa(lp366
S'leonardo'
p367
a(dp368
g88
S'/usr/share/arduino/hardware/arduino'
p369
sS'bootloader'
p370
(dp371
S'extended_fuses'
p372
S'0xcb'
p373
sS'high_fuses'
p374
S'0xd8'
p375
sS'low_fuses'
p376
S'0xff'
p377
sS'lock_bits'
p378
S'0x2F'
p379
sS'file'
p380
S'Caterina-Leonardo.hex'
p381
sS'path'
p382
S'caterina'
p383
sS'unlock_bits'
p384
S'0x3F'
p385
ssS'build'
p386
(dp387
S'core'
p388
S'arduino'
p389
sS'f_cpu'
p390
S'16000000L'
p391
sS'vid'
p392
S'0x2341'
p393
sS'pid'
p394
S'0x8036'
p395
sS'variant'
p396
S'leonardo'
p397
sS'mcu'
p398
S'atmega32u4'
p399
ssS'name'
p400
S'Arduino Leonardo'
p401
sS'upload'
p402
(dp403
S'protocol'
p404
S'avr109'
p405
sS'maximum_size'
p406
S'28672'
p407
sS'speed'
p408
S'57600'
p409
sS'disable_flushing'
p410
S'true'
p411
ssaa(lp412
S'esplora'
p413
a(dp414
g88
S'/usr/share/arduino/hardware/arduino'
p415
sS'bootloader'
p416
(dp417
S'extended_fuses'
p418
S'0xcb'
p419
sS'high_fuses'
p420
S'0xd8'
p421
sS'low_fuses'
p422
S'0xff'
p423
sS'lock_bits'
p424
S'0x2F'
p425
sS'file'
p426
S'Caterina-Esplora.hex'
p427
sS'path'
p428
S'caterina'
p429
sS'unlock_bits'
p430
S'0x3F'
p431
ssS'build'
p432
(dp433
S'core'
p434
S'arduino'
p435
sS'f_cpu'
p436
S'16000000L'
p437
sS'vid'
p438
S'0x2341'
p439
sS'pid'
p440
S'0x803C'
p441
sS'variant'
p442
S'leonardo'
p443
sS'mcu'
p444
S'atmega32u4'
p445
ssS'name'
p446
S'Arduino Esplora'
p447
sS'upload'
p448
(dp449
S'protocol'
p450
S'avr109'
p451
sS'maximum_size'
p452
S'28672'
p453
sS'speed'
p454
S'57600'
p455
sS'disable_flushing'
p456
S'true'
p457
ssaa(lp458
S'micro'
p459
a(dp460
g88
S'/usr/share/arduino/hardware/arduino'
p461
sS'bootloader'
p462
(dp463
S'extended_fuses'
p464
S'0xcb'
p465
sS'high_fuses'
p466
S'0xd8'
p467
sS'low_fuses'
p468
S'0xff'
p469
sS'lock_bits'
p470
S'0x2F'
p471
sS'file'
p472
S'Caterina-Micro.hex'
p473
sS'path'
p474
S'caterina'
p475
sS'unlock_bits'
p476
S'0x3F'
p477
ssS'build'
p478
(dp479
S'core'
p480
S'arduino'
p481
sS'f_cpu'
p482
S'16000000L'
p483
sS'vid'
p484
S'0x2341'
p485
sS'pid'
p486
S'0x8037'
p487
sS'variant'
p488
S'micro'
p489
sS'mcu'
p490
S'atmega32u4'
p491
ssS'name'
p492
S'Arduino Micro'
p493
sS'upload'
p494
(dp495
S'protocol'
p496
S'avr109'
p497
sS'maximum_size'
p498
S'28672'
p499
sS'speed'
p500
S'57600'
p501
sS'disable_flushing'
p502
S'true'
p503
ssaa(lp504
S'mini328'
p505
a(dp506
g88
S'/usr/share/arduino/hardware/arduino'
p507
sS'bootloader'
p508
(dp509
S'extended_fuses'
p510
S'0x05'
p511
sS'high_fuses'
p512
S'0xd8'
p513
sS'low_fuses'
p514
S'0xff'
p515
sS'lock_bits'
p516
S'0x0F'
p517
sS'file'
p518
S'optiboot_atmega328-Mini.hex'
p519
sS'path'
p520
S'optiboot'
p521
sS'unlock_bits'
p522
S'0x3F'
p523
ssS'build'
p524
(dp525
S'core'
p526
S'arduino'
p527
sS'mcu'
p528
S'atmega328p'
p529
sS'f_cpu'
p530
S'16000000L'
p531
sS'variant'
p532
S'eightanaloginputs'
p533
ssS'name'
p534
S'Arduino Mini w/ ATmega328'
p535
sS'upload'
p536
(dp537
S'protocol'
p538
S'arduino'
p539
sS'maximum_size'
p540
S'28672'
p541
sS'speed'
p542
S'115200'
p543
ssaa(lp544
S'mini'
p545
a(dp546
g88
S'/usr/share/arduino/hardware/arduino'
p547
sS'bootloader'
p548
(dp549
S'extended_fuses'
p550
S'0x00'
p551
sS'high_fuses'
p552
S'0xdd'
p553
sS'low_fuses'
p554
S'0xff'
p555
sS'lock_bits'
p556
S'0x0F'
p557
sS'file'
p558
S'ATmegaBOOT_168_ng.hex'
p559
sS'path'
p560
S'atmega'
p561
sS'unlock_bits'
p562
S'0x3F'
p563
ssS'build'
p564
(dp565
S'core'
p566
S'arduino'
p567
sS'mcu'
p568
S'atmega168'
p569
sS'f_cpu'
p570
S'16000000L'
p571
sS'variant'
p572
S'eightanaloginputs'
p573
ssS'name'
p574
S'Arduino Mini w/ ATmega168'
p575
sS'upload'
p576
(dp577
S'protocol'
p578
S'arduino'
p579
sS'maximum_size'
p580
S'14336'
p581
sS'speed'
p582
S'19200'
p583
ssaa(lp584
S'ethernet'
p585
a(dp586
g88
S'/usr/share/arduino/hardware/arduino'
p587
sS'bootloader'
p588
(dp589
S'extended_fuses'
p590
S'0x05'
p591
sS'high_fuses'
p592
S'0xde'
p593
sS'low_fuses'
p594
S'0xff'
p595
sS'lock_bits'
p596
S'0x0F'
p597
sS'file'
p598
S'optiboot_atmega328.hex'
p599
sS'path'
p600
S'optiboot'
p601
sS'unlock_bits'
p602
S'0x3F'
p603
ssS'build'
p604
(dp605
S'variant'
p606
S'standard'
p607
sS'mcu'
p608
S'atmega328p'
p609
sS'f_cpu'
p610
S'16000000L'
p611
sS'core'
p612
S'arduino'
p613
ssS'name'
p614
S'Arduino Ethernet'
p615
sS'upload'
p616
(dp617
S'protocol'
p618
S'arduino'
p619
sS'maximum_size'
p620
S'32256'
p621
sS'speed'
p622
S'115200'
p623
ssaa(lp624
S'fio'
p625
a(dp626
g88
S'/usr/share/arduino/hardware/arduino'
p627
sS'bootloader'
p628
(dp629
S'extended_fuses'
p630
S'0x05'
p631
sS'high_fuses'
p632
S'0xDA'
p633
sS'low_fuses'
p634
S'0xFF'
p635
sS'lock_bits'
p636
S'0x0F'
p637
sS'file'
p638
S'ATmegaBOOT_168_atmega328_pro_8MHz.hex'
p639
sS'path'
p640
S'arduino:atmega'
p641
sS'unlock_bits'
p642
S'0x3F'
p643
ssS'build'
p644
(dp645
S'core'
p646
S'arduino'
p647
sS'mcu'
p648
S'atmega328p'
p649
sS'f_cpu'
p650
S'8000000L'
p651
sS'variant'
p652
S'eightanaloginputs'
p653
ssS'name'
p654
S'Arduino Fio'
p655
sS'upload'
p656
(dp657
S'protocol'
p658
S'arduino'
p659
sS'maximum_size'
p660
S'30720'
p661
sS'speed'
p662
S'57600'
p663
ssaa(lp664
S'bt328'
p665
a(dp666
g88
S'/usr/share/arduino/hardware/arduino'
p667
sS'bootloader'
p668
(dp669
S'extended_fuses'
p670
S'0x05'
p671
sS'high_fuses'
p672
S'0xd8'
p673
sS'low_fuses'
p674
S'0xff'
p675
sS'lock_bits'
p676
S'0x0F'
p677
sS'file'
p678
S'ATmegaBOOT_168_atmega328_bt.hex'
p679
sS'path'
p680
S'bt'
p681
sS'unlock_bits'
p682
S'0x3F'
p683
ssS'build'
p684
(dp685
S'core'
p686
S'arduino'
p687
sS'mcu'
p688
S'atmega328p'
p689
sS'f_cpu'
p690
S'16000000L'
p691
sS'variant'
p692
S'eightanaloginputs'
p693
ssS'name'
p694
S'Arduino BT w/ ATmega328'
p695
sS'upload'
p696
(dp697
S'protocol'
p698
S'arduino'
p699
sS'maximum_size'
p700
S'28672'
p701
sS'speed'
p702
S'19200'
p703
sS'disable_flushing'
p704
S'true'
p705
ssaa(lp706
S'bt'
p707
a(dp708
g88
S'/usr/share/arduino/hardware/arduino'
p709
sS'bootloader'
p710
(dp711
S'extended_fuses'
p712
S'0x00'
p713
sS'high_fuses'
p714
S'0xdd'
p715
sS'low_fuses'
p716
S'0xff'
p717
sS'lock_bits'
p718
S'0x0F'
p719
sS'file'
p720
S'ATmegaBOOT_168.hex'
p721
sS'path'
p722
S'bt'
p723
sS'unlock_bits'
p724
S'0x3F'
p725
ssS'build'
p726
(dp727
S'core'
p728
S'arduino'
p729
sS'mcu'
p730
S'atmega168'
p731
sS'f_cpu'
p732
S'16000000L'
p733
sS'variant'
p734
S'eightanaloginputs'
p735
ssS'name'
p736
S'Arduino BT w/ ATmega168'
p737
sS'upload'
p738
(dp739
S'protocol'
p740
S'arduino'
p741
sS'maximum_size'
p742
S'14336'
p743
sS'speed'
p744
S'19200'
p745
sS'disable_flushing'
p746
S'true'
p747
ssaa(lp748
S'LilyPadUSB'
p749
a(dp750
g88
S'/usr/share/arduino/hardware/arduino'
p751
sS'bootloader'
p752
(dp753
S'extended_fuses'
p754
S'0xce'
p755
sS'high_fuses'
p756
S'0xd8'
p757
sS'low_fuses'
p758
S'0xff'
p759
sS'lock_bits'
p760
S'0x2F'
p761
sS'file'
p762
S'Caterina-LilyPadUSB.hex'
p763
sS'path'
p764
S'caterina-LilyPadUSB'
p765
sS'unlock_bits'
p766
S'0x3F'
p767
ssS'build'
p768
(dp769
S'core'
p770
S'arduino'
p771
sS'f_cpu'
p772
S'8000000L'
p773
sS'vid'
p774
S'0x1B4F'
p775
sS'pid'
p776
S'0x9208'
p777
sS'variant'
p778
S'leonardo'
p779
sS'mcu'
p780
S'atmega32u4'
p781
ssS'name'
p782
S'LilyPad Arduino USB'
p783
sS'upload'
p784
(dp785
S'protocol'
p786
S'avr109'
p787
sS'maximum_size'
p788
S'28672'
p789
sS'speed'
p790
S'57600'
p791
sS'disable_flushing'
p792
S'true'
p793
ssaa(lp794
S'lilypad328'
p795
a(dp796
g88
S'/usr/share/arduino/hardware/arduino'
p797
sS'bootloader'
p798
(dp799
S'extended_fuses'
p800
S'0x05'
p801
sS'high_fuses'
p802
S'0xDA'
p803
sS'low_fuses'
p804
S'0xFF'
p805
sS'lock_bits'
p806
S'0x0F'
p807
sS'file'
p808
S'ATmegaBOOT_168_atmega328_pro_8MHz.hex'
p809
sS'path'
p810
S'atmega'
p811
sS'unlock_bits'
p812
S'0x3F'
p813
ssS'build'
p814
(dp815
S'core'
p816
S'arduino'
p817
sS'mcu'
p818
S'atmega328p'
p819
sS'f_cpu'
p820
S'8000000L'
p821
sS'variant'
p822
S'standard'
p823
ssS'name'
p824
S'LilyPad Arduino w/ ATmega328'
p825
sS'upload'
p826
(dp827
S'protocol'
p828
S'arduino'
p829
sS'maximum_size'
p830
S'30720'
p831
sS'speed'
p832
S'57600'
p833
ssaa(lp834
S'lilypad'
p835
a(dp836
g88
S'/usr/share/arduino/hardware/arduino'
p837
sS'bootloader'
p838
(dp839
S'extended_fuses'
p840
S'0x00'
p841
sS'high_fuses'
p842
S'0xdd'
p843
sS'low_fuses'
p844
S'0xe2'
p845
sS'lock_bits'
p846
S'0x0F'
p847
sS'file'
p848
S'LilyPadBOOT_168.hex'
p849
sS'path'
p850
S'lilypad'
p851
sS'unlock_bits'
p852
S'0x3F'
p853
ssS'build'
p854
(dp855
S'core'
p856
S'arduino'
p857
sS'mcu'
p858
S'atmega168'
p859
sS'f_cpu'
p860
S'8000000L'
p861
sS'variant'
p862
S'standard'
p863
ssS'name'
p864
S'LilyPad Arduino w/ ATmega168'
p865
sS'upload'
p866
(dp867
S'protocol'
p868
S'arduino'
p869
sS'maximum_size'
p870
S'14336'
p871
sS'speed'
p872
S'19200'
p873
ssaa(lp874
S'pro5v328'
p875
a(dp876
g88
S'/usr/share/arduino/hardware/arduino'
p877
sS'bootloader'
p878
(dp879
S'extended_fuses'
p880
S'0x05'
p881
sS'high_fuses'
p882
S'0xDA'
p883
sS'low_fuses'
p884
S'0xFF'
p885
sS'lock_bits'
p886
S'0x0F'
p887
sS'file'
p888
S'ATmegaBOOT_168_atmega328.hex'
p889
sS'path'
p890
S'atmega'
p891
sS'unlock_bits'
p892
S'0x3F'
p893
ssS'build'
p894
(dp895
S'core'
p896
S'arduino'
p897
sS'mcu'
p898
S'atmega328p'
p899
sS'f_cpu'
p900
S'16000000L'
p901
sS'variant'
p902
S'standard'
p903
ssS'name'
p904
S'Arduino Pro or Pro Mini (5V, 16 MHz) w/ ATmega328'
p905
sS'upload'
p906
(dp907
S'protocol'
p908
S'arduino'
p909
sS'maximum_size'
p910
S'30720'
p911
sS'speed'
p912
S'57600'
p913
ssaa(lp914
S'pro5v'
p915
a(dp916
g88
S'/usr/share/arduino/hardware/arduino'
p917
sS'bootloader'
p918
(dp919
S'extended_fuses'
p920
S'0x00'
p921
sS'high_fuses'
p922
S'0xdd'
p923
sS'low_fuses'
p924
S'0xff'
p925
sS'lock_bits'
p926
S'0x0F'
p927
sS'file'
p928
S'ATmegaBOOT_168_diecimila.hex'
p929
sS'path'
p930
S'atmega'
p931
sS'unlock_bits'
p932
S'0x3F'
p933
ssS'build'
p934
(dp935
S'core'
p936
S'arduino'
p937
sS'mcu'
p938
S'atmega168'
p939
sS'f_cpu'
p940
S'16000000L'
p941
sS'variant'
p942
S'standard'
p943
ssS'name'
p944
S'Arduino Pro or Pro Mini (5V, 16 MHz) w/ ATmega168'
p945
sS'upload'
p946
(dp947
S'protocol'
p948
S'arduino'
p949
sS'maximum_size'
p950
S'14336'
p951
sS'speed'
p952
S'19200'
p953
ssaa(lp954
S'pro328'
p955
a(dp956
g88
S'/usr/share/arduino/hardware/arduino'
p957
sS'bootloader'
p958
(dp959
S'extended_fuses'
p960
S'0x05'
p961
sS'high_fuses'
p962
S'0xDA'
p963
sS'low_fuses'
p964
S'0xFF'
p965
sS'lock_bits'
p966
S'0x0F'
p967
sS'file'
p968
S'ATmegaBOOT_168_atmega328_pro_8MHz.hex'
p969
sS'path'
p970
S'atmega'
p971
sS'unlock_bits'
p972
S'0x3F'
p973
ssS'build'
p974
(dp975
S'core'
p976
S'arduino'
p977
sS'mcu'
p978
S'atmega328p'
p979
sS'f_cpu'
p980
S'8000000L'
p981
sS'variant'
p982
S'standard'
p983
ssS'name'
p984
S'Arduino Pro or Pro Mini (3.3V, 8 MHz) w/ ATmega328'
p985
sS'upload'
p986
(dp987
S'protocol'
p988
S'arduino'
p989
sS'maximum_size'
p990
S'30720'
p991
sS'speed'
p992
S'57600'
p993
ssaa(lp994
S'pro'
p995
a(dp996
g88
S'/usr/share/arduino/hardware/arduino'
p997
sS'bootloader'
p998
(dp999
S'extended_fuses'
p1000
S'0x00'
p1001
sS'high_fuses'
p1002
S'0xdd'
p1003
sS'low_fuses'
p1004
S'0xc6'
p1005
sS'lock_bits'
p1006
S'0x0F'
p1007
sS'file'
p1008
S'ATmegaBOOT_168_pro_8MHz.hex'
p1009
sS'path'
p1010
S'atmega'
p1011
sS'unlock_bits'
p1012
S'0x3F'
p1013
ssS'build'
p1014
(dp1015
S'core'
p1016
S'arduino'
p1017
sS'mcu'
p1018
S'atmega168'
p1019
sS'f_cpu'
p1020
S'8000000L'
p1021
sS'variant'
p1022
S'standard'
p1023
ssS'name'
p1024
S'Arduino Pro or Pro Mini (3.3V, 8 MHz) w/ ATmega168'
p1025
sS'upload'
p1026
(dp1027
S'protocol'
p1028
S'arduino'
p1029
sS'maximum_size'
p1030
S'14336'
p1031
sS'speed'
p1032
S'19200'
p1033
ssaa(lp1034
S'atmega168'
p1035
a(dp1036
g88
S'/usr/share/arduino/hardware/arduino'
p1037
sS'bootloader'
p1038
(dp1039
S'extended_fuses'
p1040
S'0x00'
p1041
sS'high_fuses'
p1042
S'0xdd'
p1043
sS'low_fuses'
p1044
S'0xff'
p1045
sS'lock_bits'
p1046
S'0x0F'
p1047
sS'file'
p1048
S'ATmegaBOOT_168_ng.hex'
p1049
sS'path'
p1050
S'atmega'
p1051
sS'unlock_bits'
p1052
S'0x3F'
p1053
ssS'build'
p1054
(dp1055
S'core'
p1056
S'arduino'
p1057
sS'mcu'
p1058
S'atmega168'
p1059
sS'f_cpu'
p1060
S'16000000L'
p1061
sS'variant'
p1062
S'standard'
p1063
ssS'name'
p1064
S'Arduino NG or older w/ ATmega168'
p1065
sS'upload'
p1066
(dp1067
S'protocol'
p1068
S'arduino'
p1069
sS'maximum_size'
p1070
S'14336'
p1071
sS'speed'
p1072
S'19200'
p1073
ssaa(lp1074
S'atmega8'
p1075
a(dp1076
g88
S'/usr/share/arduino/hardware/arduino'
p1077
sS'bootloader'
p1078
(dp1079
S'high_fuses'
p1080
S'0xca'
p1081
sS'low_fuses'
p1082
S'0xdf'
p1083
sS'lock_bits'
p1084
S'0x0F'
p1085
sS'file'
p1086
S'ATmegaBOOT-prod-firmware-2009-11-07.hex'
p1087
sS'path'
p1088
S'atmega8'
p1089
sS'unlock_bits'
p1090
S'0x3F'
p1091
ssS'build'
p1092
(dp1093
S'core'
p1094
S'arduino'
p1095
sS'mcu'
p1096
S'atmega8'
p1097
sS'f_cpu'
p1098
S'16000000L'
p1099
sS'variant'
p1100
S'standard'
p1101
ssS'name'
p1102
S'Arduino NG or older w/ ATmega8'
p1103
sS'upload'
p1104
(dp1105
S'protocol'
p1106
S'arduino'
p1107
sS'maximum_size'
p1108
S'7168'
p1109
sS'speed'
p1110
S'19200'
p1111
ssaa(lp1112
S'robotControl'
p1113
a(dp1114
g88
S'/usr/share/arduino/hardware/arduino'
p1115
sS'bootloader'
p1116
(dp1117
S'extended_fuses'
p1118
S'0xcb'
p1119
sS'high_fuses'
p1120
S'0xd8'
p1121
sS'low_fuses'
p1122
S'0xff'
p1123
sS'lock_bits'
p1124
S'0x2F'
p1125
sS'file'
p1126
S'Caterina-Robot-Control.hex'
p1127
sS'path'
p1128
S'caterina-Arduino_Robot'
p1129
sS'unlock_bits'
p1130
S'0x3F'
p1131
ssS'build'
p1132
(dp1133
S'core'
p1134
S'robot'
p1135
sS'f_cpu'
p1136
S'16000000L'
p1137
sS'vid'
p1138
S'0x2341'
p1139
sS'pid'
p1140
S'0x8038'
p1141
sS'variant'
p1142
S'robot_control'
p1143
sS'mcu'
p1144
S'atmega32u4'
p1145
ssS'name'
p1146
S'Arduino Robot Control'
p1147
sS'upload'
p1148
(dp1149
S'protocol'
p1150
S'avr109'
p1151
sS'maximum_size'
p1152
S'28672'
p1153
sS'speed'
p1154
S'57600'
p1155
sS'disable_flushing'
p1156
S'true'
p1157
ssaa(lp1158
S'robotMotor'
p1159
a(dp1160
g88
S'/usr/share/arduino/hardware/arduino'
p1161
sS'bootloader'
p1162
(dp1163
S'extended_fuses'
p1164
S'0xcb'
p1165
sS'high_fuses'
p1166
S'0xd8'
p1167
sS'low_fuses'
p1168
S'0xff'
p1169
sS'lock_bits'
p1170
S'0x2F'
p1171
sS'file'
p1172
S'Caterina-Robot-Motor.hex'
p1173
sS'path'
p1174
S'caterina-Arduino_Robot'
p1175
sS'unlock_bits'
p1176
S'0x3F'
p1177
ssS'build'
p1178
(dp1179
S'core'
p1180
S'robot'
p1181
sS'f_cpu'
p1182
S'16000000L'
p1183
sS'vid'
p1184
S'0x2341'
p1185
sS'pid'
p1186
S'0x8039'
p1187
sS'variant'
p1188
S'robot_motor'
p1189
sS'mcu'
p1190
S'atmega32u4'
p1191
ssS'name'
p1192
S'Arduino Robot Motor'
p1193
sS'upload'
p1194
(dp1195
S'protocol'
p1196
S'avr109'
p1197
sS'maximum_size'
p1198
S'28672'
p1199
sS'speed'
p1200
S'57600'
p1201
sS'disable_flushing'
p1202
S'true'
p1203
ssaatp1204
Rp1205
(dp1206
S'default'
p1207
S'uno'
p1208
sbtp1209
a(S'used_libs'
p1210
(lp1211
S'lib/FastLED'
p1212
aS'/usr/share/arduino/hardware/arduino/cores/arduino'
p1213
atp1214
a(S'make'
p1215
S'/usr/share/arduino/hardware/tools/avr/bin/make'
p1216
tp1217
a(S'build_dir'
p1218
S'.build/uno'
p1219
tp1220
a(S'cc'
p1221
S'/usr/share/arduino/hardware/tools/avr/bin/avr-gcc'
p1222
tp1223
a(S'cflags'
p1224
g2
(g3
g4
(lp1225
tp1226
Rp1227
tp1228
a(S'cxxflags'
p1229
g2
(g3
g4
(lp1230
S'-fno-exceptions'
p1231
atp1232
Rp1233
tp1234
a(S'arduino_variants_dir'
p1235
S'/usr/share/arduino/hardware/arduino/variants'
p1236
tp1237
a(S'stty'
p1238
S'/bin/stty'
p1239
tp1240
a(S'version.txt'
p1241
S'/usr/share/arduino/lib/version.txt'
p1242
tp1243
a(S'arduino_core_dir'
p1244
g1213
tp1245
a(S'boards.txt'
p1246
(lp1247
S'/usr/share/arduino/hardware/arduino/boards.txt'
p1248
atp1249
a(S'avrdude.conf'
p1250
S'/usr/share/arduino/hardware/tools/avrdude.conf'
p1251
tp1252
a(g62
g2
(g3
g4
(lp1253
S'.build/uno/src/dependencies.d'
p1254
aS'.build/uno/arduino/dependencies.d'
p1255
aS'.build/uno/FastLED/dependencies.d'
p1256
atp1257
Rp1258
tp1259
a.